target datalayout = "e-m:e-p270:32:32-p271:32:32-p272:64:64-i64:64-i128:128-f80:128-n8:16:32:64-S128"
target triple = "x86_64-pc-linux-gnu"

%struct.Type_ = type { i32, ptr, ptr, ptr, %union.anon, ptr, ptr, %union.anon.1 }
%union.anon = type { ptr }
%union.anon.1 = type { %struct.TypeFunction }
%struct.TypeFunction = type { ptr, ptr, ptr }
%union.SourceSpan = type { i64 }
%struct.Decl_ = type { ptr, ptr, %union.SourceSpan, i64, %union.anon.3, i32, %union.anon.4, i64, ptr, ptr, ptr, %union.anon.5 }
%union.anon.3 = type { ptr }
%union.anon.4 = type { i16 }
%union.anon.5 = type { %struct.FuncDecl }
%struct.FuncDecl = type { i32, [4 x i8], %struct.Signature_, i32, i32, %union.anon.12 }
%struct.Signature_ = type <{ %struct.CalleeAttributes, i16, i8, i32, i32, [4 x i8], ptr }>
%struct.CalleeAttributes = type { i8 }
%union.anon.12 = type { %struct.anon.13 }
%struct.anon.13 = type { i16, %union.anon.14 }
%union.anon.14 = type { ptr }
%struct.TypeArray = type { ptr, i32 }
%struct.anon.6 = type { ptr, ptr, %union.anon.7 }
%union.anon.7 = type { %struct.BitStructDecl }
%struct.BitStructDecl = type { ptr, ptr, i8 }
%struct.TypeInfo_ = type { i16, ptr, %union.SourceSpan, %union.anon.54 }
%union.anon.54 = type { %struct.anon.55 }
%struct.anon.55 = type { ptr, ptr }
%struct.StructDecl = type { i32, ptr, i32, i16 }

@type_void = dso_local global ptr @t, align 8
@type_voidptr = dso_local global ptr getelementptr (i8, ptr @t, i64 1680), align 8

; Function Attrs: nounwind uwtable
define dso_local ptr @type_find_parent_type(ptr noundef %0) #0 {
  %2 = alloca ptr, align 8
  %3 = alloca ptr, align 8
  %4 = alloca ptr, align 8
  %5 = alloca ptr, align 8
  store ptr %0, ptr %3, align 8
  %6 = load ptr, ptr %3, align 8
  %7 = getelementptr inbounds %struct.Type_, ptr %6, i32 0, i32 0
  %8 = load i32, ptr %7, align 8
  switch i32 %8, label %52 [
    i32 32, label %9
    i32 26, label %29
  ]

9:                                                ; preds = %1
  %10 = load ptr, ptr %3, align 8
  %11 = getelementptr inbounds %struct.Type_, ptr %10, i32 0, i32 7
  %12 = load ptr, ptr %11, align 8
  store ptr %12, ptr %4, align 8
  %13 = load ptr, ptr %4, align 8
  %14 = getelementptr inbounds %struct.Decl_, ptr %13, i32 0, i32 3
  %15 = load i64, ptr %14, align 8
  %16 = lshr i64 %15, 15
  %17 = and i64 %16, 1
  %18 = trunc i64 %17 to i1
  br i1 %18, label %19, label %26

19:                                               ; preds = %9
  %20 = load ptr, ptr %4, align 8
  %21 = getelementptr inbounds %struct.Decl_, ptr %20, i32 0, i32 11
  %22 = getelementptr inbounds %struct.anon.6, ptr %21, i32 0, i32 2
  %23 = load ptr, ptr %22, align 8
  %24 = getelementptr inbounds %struct.TypeInfo_, ptr %23, i32 0, i32 1
  %25 = load ptr, ptr %24, align 8
  br label %27

26:                                               ; preds = %9
  br label %27

27:                                               ; preds = %26, %19
  %28 = phi ptr [ %25, %19 ], [ null, %26 ]
  store ptr %28, ptr %2, align 8
  br label %53

29:                                               ; preds = %1
  %30 = load ptr, ptr %3, align 8
  %31 = getelementptr inbounds %struct.Type_, ptr %30, i32 0, i32 7
  %32 = load ptr, ptr %31, align 8
  store ptr %32, ptr %5, align 8
  %33 = load ptr, ptr %5, align 8
  %34 = getelementptr inbounds %struct.Decl_, ptr %33, i32 0, i32 3
  %35 = load i64, ptr %34, align 8
  %36 = lshr i64 %35, 15
  %37 = and i64 %36, 1
  %38 = trunc i64 %37 to i1
  br i1 %38, label %39, label %49

39:                                               ; preds = %29
  %40 = load ptr, ptr %5, align 8
  %41 = getelementptr inbounds %struct.Decl_, ptr %40, i32 0, i32 11
  %42 = getelementptr inbounds %struct.anon.6, ptr %41, i32 0, i32 2
  %43 = getelementptr inbounds %struct.StructDecl, ptr %42, i32 0, i32 1
  %44 = load ptr, ptr %43, align 8
  %45 = getelementptr inbounds ptr, ptr %44, i64 0
  %46 = load ptr, ptr %45, align 8
  %47 = getelementptr inbounds %struct.Decl_, ptr %46, i32 0, i32 10
  %48 = load ptr, ptr %47, align 8
  br label %50

49:                                               ; preds = %29
  br label %50

50:                                               ; preds = %49, %39
  %51 = phi ptr [ %48, %39 ], [ null, %49 ]
  store ptr %51, ptr %2, align 8
  br label %53

52:                                               ; preds = %1
  store ptr null, ptr %2, align 8
  br label %53

53:                                               ; preds = %52, %50, %27
  %54 = load ptr, ptr %2, align 8
  ret ptr %54
}

; Function Attrs: nounwind uwtable
define dso_local zeroext i1 @type_is_subtype(ptr noundef %0, ptr noundef %1) #0 {
  %3 = alloca i1, align 1
  %4 = alloca ptr, align 8
  %5 = alloca ptr, align 8
  store ptr %0, ptr %4, align 8
  store ptr %1, ptr %5, align 8
  br label %6

6:                                                ; preds = %17, %2
  %7 = load ptr, ptr %5, align 8
  %8 = icmp ne ptr %7, null
  br i1 %8, label %9, label %20

9:                                                ; preds = %6
  %10 = load ptr, ptr %5, align 8
  %11 = getelementptr inbounds %struct.Type_, ptr %10, i32 0, i32 1
  %12 = load ptr, ptr %11, align 8
  store ptr %12, ptr %5, align 8
  %13 = load ptr, ptr %4, align 8
  %14 = load ptr, ptr %5, align 8
  %15 = icmp eq ptr %13, %14
  br i1 %15, label %16, label %17

16:                                               ; preds = %9
  store i1 true, ptr %3, align 1
  br label %21

17:                                               ; preds = %9
  %18 = load ptr, ptr %5, align 8
  %19 = call ptr @type_find_parent_type(ptr noundef %18)
  store ptr %19, ptr %5, align 8
  br label %6, !llvm.loop !23

20:                                               ; preds = %6
  store i1 false, ptr %3, align 1
  br label %21

21:                                               ; preds = %20, %16
  %22 = load i1, ptr %3, align 1
  ret i1 %22
}

; Function Attrs: nounwind uwtable
define dso_local ptr @type_get_ptr(ptr noundef %0) #0 {
  %2 = alloca ptr, align 8
  store ptr %0, ptr %2, align 8
  %3 = load ptr, ptr %2, align 8
  %4 = call ptr @type_generate_ptr(ptr noundef %3, i1 noundef zeroext false)
  ret ptr %4
}

; Function Attrs: nounwind uwtable
define internal ptr @type_find_max_ptr_type(ptr noundef %0, ptr noundef %1) #0 {
  %3 = alloca ptr, align 8
  %4 = alloca ptr, align 8
  %5 = alloca ptr, align 8
  %6 = alloca ptr, align 8
  %7 = alloca ptr, align 8
  %8 = alloca ptr, align 8
  %9 = alloca ptr, align 8
  %10 = alloca ptr, align 8
  store ptr %0, ptr %5, align 8
  store ptr %1, ptr %6, align 8
  %11 = load ptr, ptr %6, align 8
  %12 = getelementptr inbounds %struct.Type_, ptr %11, i32 0, i32 0
  %13 = load i32, ptr %12, align 8
  %14 = icmp eq i32 %13, 34
  br i1 %14, label %15, label %29

15:                                               ; preds = %2
  %16 = load ptr, ptr %5, align 8
  %17 = getelementptr inbounds %struct.Type_, ptr %16, i32 0, i32 7
  %18 = load ptr, ptr %17, align 8
  %19 = load ptr, ptr %6, align 8
  %20 = getelementptr inbounds %struct.Type_, ptr %19, i32 0, i32 7
  %21 = load ptr, ptr %20, align 8
  %22 = call ptr @type_find_max_type(ptr noundef %18, ptr noundef %21)
  store ptr %22, ptr %7, align 8
  %23 = load ptr, ptr %7, align 8
  %24 = icmp ne ptr %23, null
  br i1 %24, label %26, label %25

25:                                               ; preds = %15
  store ptr null, ptr %4, align 8
  br label %109

26:                                               ; preds = %15
  %27 = load ptr, ptr %7, align 8
  %28 = call ptr @type_get_ptr(ptr noundef %27)
  store ptr %28, ptr %4, align 8
  br label %109

29:                                               ; preds = %2
  %30 = load ptr, ptr %6, align 8
  %31 = getelementptr inbounds %struct.Type_, ptr %30, i32 0, i32 0
  %32 = load i32, ptr %31, align 8
  %33 = icmp ne i32 %32, 23
  br i1 %33, label %34, label %35

34:                                               ; preds = %29
  store ptr null, ptr %4, align 8
  br label %109

35:                                               ; preds = %29
  %36 = load ptr, ptr %6, align 8
  %37 = getelementptr inbounds %struct.Type_, ptr %36, i32 0, i32 7
  %38 = load ptr, ptr %37, align 8
  store ptr %38, ptr %8, align 8
  %39 = load ptr, ptr %5, align 8
  %40 = getelementptr inbounds %struct.Type_, ptr %39, i32 0, i32 7
  %41 = load ptr, ptr %40, align 8
  store ptr %41, ptr %9, align 8
  %42 = load ptr, ptr %8, align 8
  %43 = getelementptr inbounds %struct.Type_, ptr %42, i32 0, i32 0
  %44 = load i32, ptr %43, align 8
  %45 = load ptr, ptr %9, align 8
  %46 = getelementptr inbounds %struct.Type_, ptr %45, i32 0, i32 0
  %47 = load i32, ptr %46, align 8
  %48 = icmp ult i32 %44, %47
  br i1 %48, label %49, label %54

49:                                               ; preds = %35
  %50 = load ptr, ptr %8, align 8
  store ptr %50, ptr %9, align 8
  %51 = load ptr, ptr %5, align 8
  %52 = getelementptr inbounds %struct.Type_, ptr %51, i32 0, i32 7
  %53 = load ptr, ptr %52, align 8
  store ptr %53, ptr %8, align 8
  br label %54

54:                                               ; preds = %49, %35
  %55 = load ptr, ptr %9, align 8
  store ptr %55, ptr %3, align 8
  %56 = load ptr, ptr %3, align 8
  %57 = getelementptr inbounds %struct.Type_, ptr %56, i32 0, i32 1
  %58 = load ptr, ptr %57, align 8
  %59 = load ptr, ptr @type_void, align 8
  %60 = icmp eq ptr %58, %59
  br i1 %60, label %61, label %63

61:                                               ; preds = %54
  %62 = load ptr, ptr @type_voidptr, align 8
  store ptr %62, ptr %4, align 8
  br label %109

63:                                               ; preds = %54
  %64 = load ptr, ptr %9, align 8
  %65 = getelementptr inbounds %struct.Type_, ptr %64, i32 0, i32 0
  %66 = load i32, ptr %65, align 8
  %67 = icmp eq i32 %66, 23
  br i1 %67, label %68, label %79

68:                                               ; preds = %63
  %69 = load ptr, ptr %8, align 8
  %70 = getelementptr inbounds %struct.Type_, ptr %69, i32 0, i32 0
  %71 = load i32, ptr %70, align 8
  %72 = icmp eq i32 %71, 33
  br i1 %72, label %73, label %79

73:                                               ; preds = %68
  %74 = load ptr, ptr %8, align 8
  %75 = getelementptr inbounds %struct.Type_, ptr %74, i32 0, i32 7
  %76 = getelementptr inbounds %struct.TypeArray, ptr %75, i32 0, i32 0
  %77 = load ptr, ptr %76, align 8
  %78 = call ptr @type_get_ptr(ptr noundef %77)
  store ptr %78, ptr %8, align 8
  br label %79

79:                                               ; preds = %73, %68, %63
  %80 = load ptr, ptr %9, align 8
  %81 = getelementptr inbounds %struct.Type_, ptr %80, i32 0, i32 1
  %82 = load ptr, ptr %81, align 8
  %83 = load ptr, ptr %8, align 8
  %84 = getelementptr inbounds %struct.Type_, ptr %83, i32 0, i32 1
  %85 = load ptr, ptr %84, align 8
  %86 = call zeroext i1 @type_is_subtype(ptr noundef %82, ptr noundef %85)
  br i1 %86, label %87, label %89

87:                                               ; preds = %79
  %88 = load ptr, ptr %5, align 8
  store ptr %88, ptr %4, align 8
  br label %109

89:                                               ; preds = %79
  %90 = load ptr, ptr %8, align 8
  %91 = getelementptr inbounds %struct.Type_, ptr %90, i32 0, i32 1
  %92 = load ptr, ptr %91, align 8
  %93 = load ptr, ptr %9, align 8
  %94 = getelementptr inbounds %struct.Type_, ptr %93, i32 0, i32 1
  %95 = load ptr, ptr %94, align 8
  %96 = call zeroext i1 @type_is_subtype(ptr noundef %92, ptr noundef %95)
  br i1 %96, label %97, label %99

97:                                               ; preds = %89
  %98 = load ptr, ptr %6, align 8
  store ptr %98, ptr %4, align 8
  br label %109

99:                                               ; preds = %89
  %100 = load ptr, ptr %9, align 8
  %101 = load ptr, ptr %8, align 8
  %102 = call ptr @type_find_max_type(ptr noundef %100, ptr noundef %101)
  store ptr %102, ptr %10, align 8
  %103 = load ptr, ptr %10, align 8
  %104 = icmp ne ptr %103, null
  br i1 %104, label %106, label %105

105:                                              ; preds = %99
  store ptr null, ptr %4, align 8
  br label %109

106:                                              ; preds = %99
  %107 = load ptr, ptr %10, align 8
  %108 = call ptr @type_get_ptr(ptr noundef %107)
  store ptr %108, ptr %4, align 8
  br label %109

109:                                              ; preds = %106, %105, %97, %87, %61, %34, %26, %25
  %110 = load ptr, ptr %4, align 8
  ret ptr %110
}