; Function Attrs: nounwind uwtable
define internal fastcc ptr @type_find_max_ptr_type(ptr noundef readonly %0, ptr noundef readonly %1) unnamed_addr #0 {
  %3 = load i32, ptr %1, align 8
  switch i32 %3, label %type_is_subtype.exit [
    i32 34, label %4
    i32 23, label %12
  ]

4:                                                ; preds = %2
  %5 = getelementptr inbounds i8, ptr %0, i64 56
  %6 = load ptr, ptr %5, align 8
  %7 = getelementptr inbounds i8, ptr %1, i64 56
  %8 = load ptr, ptr %7, align 8
  %9 = tail call ptr @type_find_max_type(ptr noundef %6, ptr noundef %8)
  %.not34 = icmp eq ptr %9, null
  br i1 %.not34, label %type_is_subtype.exit, label %10

10:                                               ; preds = %4
  %11 = tail call fastcc ptr @type_generate_ptr(ptr noundef nonnull %9, i1 noundef zeroext false)
  br label %type_is_subtype.exit

12:                                               ; preds = %2
  %13 = getelementptr inbounds i8, ptr %1, i64 56
  %14 = load ptr, ptr %13, align 8
  %15 = getelementptr inbounds i8, ptr %0, i64 56
  %16 = load ptr, ptr %15, align 8
  %17 = load i32, ptr %14, align 8
  %18 = load i32, ptr %16, align 8
  %19 = icmp ult i32 %17, %18
  %spec.select = select i1 %19, ptr %16, ptr %14
  %spec.select35 = select i1 %19, ptr %14, ptr %16
  %20 = getelementptr inbounds i8, ptr %spec.select35, i64 8
  %21 = load ptr, ptr %20, align 8
  %22 = load ptr, ptr @type_void, align 8
  %23 = icmp eq ptr %21, %22
  br i1 %23, label %24, label %26

24:                                               ; preds = %12
  %25 = load ptr, ptr @type_voidptr, align 8
  br label %type_is_subtype.exit

26:                                               ; preds = %12
  %27 = tail call i32 @llvm.umax.i32(i32 %17, i32 %18)
  %28 = tail call i32 @llvm.umin.i32(i32 %17, i32 %18)
  %29 = icmp eq i32 %28, 23
  %30 = icmp eq i32 %27, 33
  %or.cond = and i1 %29, %30
  br i1 %or.cond, label %31, label %35

31:                                               ; preds = %26
  %32 = getelementptr inbounds i8, ptr %spec.select, i64 56
  %33 = load ptr, ptr %32, align 8
  %34 = tail call fastcc ptr @type_generate_ptr(ptr noundef %33, i1 noundef zeroext false)
  %.pre = load ptr, ptr %20, align 8
  br label %35

35:                                               ; preds = %31, %26
  %36 = phi ptr [ %.pre, %31 ], [ %21, %26 ]
  %.1 = phi ptr [ %34, %31 ], [ %spec.select, %26 ]
  %37 = getelementptr inbounds i8, ptr %.1, i64 8
  %38 = load ptr, ptr %37, align 8
  %.not8.not.i = icmp eq ptr %38, null
  br i1 %.not8.not.i, label %.loopexit50, label %.lr.ph.i

.lr.ph.i:                                         ; preds = %35, %type_find_parent_type.exit.i
  %.09.i = phi ptr [ %63, %type_find_parent_type.exit.i ], [ %38, %35 ]
  %39 = getelementptr inbounds i8, ptr %.09.i, i64 8
  %40 = load ptr, ptr %39, align 8
  %41 = icmp eq ptr %40, %36
  br i1 %41, label %type_is_subtype.exit, label %42

42:                                               ; preds = %.lr.ph.i
  %43 = load i32, ptr %40, align 8
  switch i32 %43, label %.loopexit50 [
    i32 32, label %44
    i32 26, label %52
  ]

44:                                               ; preds = %42
  %45 = getelementptr inbounds i8, ptr %40, i64 56
  %46 = load ptr, ptr %45, align 8
  %47 = getelementptr inbounds i8, ptr %46, i64 24
  %48 = load i64, ptr %47, align 8
  %49 = and i64 %48, 32768
  %.not8.i.i = icmp eq i64 %49, 0
  br i1 %.not8.i.i, label %.loopexit50, label %50

50:                                               ; preds = %44
  %51 = getelementptr inbounds i8, ptr %46, i64 96
  br label %type_find_parent_type.exit.i

52:                                               ; preds = %42
  %53 = getelementptr inbounds i8, ptr %40, i64 56
  %54 = load ptr, ptr %53, align 8
  %55 = getelementptr inbounds i8, ptr %54, i64 24
  %56 = load i64, ptr %55, align 8
  %57 = and i64 %56, 32768
  %.not.i.i = icmp eq i64 %57, 0
  br i1 %.not.i.i, label %.loopexit50, label %58

58:                                               ; preds = %52
  %59 = getelementptr inbounds i8, ptr %54, i64 104
  %60 = load ptr, ptr %59, align 8
  br label %type_find_parent_type.exit.i

type_find_parent_type.exit.i:                     ; preds = %58, %50
  %.sink.i.i = phi ptr [ %60, %58 ], [ %51, %50 ]
  %.sink10.i.i = phi i64 [ 72, %58 ], [ 8, %50 ]
  %61 = load ptr, ptr %.sink.i.i, align 8
  %62 = getelementptr inbounds i8, ptr %61, i64 %.sink10.i.i
  %63 = load ptr, ptr %62, align 8
  %.not.not.i = icmp eq ptr %63, null
  br i1 %.not.not.i, label %.loopexit50, label %.lr.ph.i, !llvm.loop !24

.loopexit50:                                      ; preds = %42, %52, %44, %type_find_parent_type.exit.i, %35
  %.not8.not.i36 = icmp eq ptr %36, null
  br i1 %.not8.not.i36, label %.loopexit, label %.lr.ph.i37

.lr.ph.i37:                                       ; preds = %.loopexit50, %type_find_parent_type.exit.i40
  %.09.i38 = phi ptr [ %88, %type_find_parent_type.exit.i40 ], [ %36, %.loopexit50 ]
  %64 = getelementptr inbounds i8, ptr %.09.i38, i64 8
  %65 = load ptr, ptr %64, align 8
  %66 = icmp eq ptr %65, %38
  br i1 %66, label %type_is_subtype.exit, label %67

67:                                               ; preds = %.lr.ph.i37
  %68 = load i32, ptr %65, align 8
  switch i32 %68, label %.loopexit [
    i32 32, label %69
    i32 26, label %77
  ]

69:                                               ; preds = %67
  %70 = getelementptr inbounds i8, ptr %65, i64 56
  %71 = load ptr, ptr %70, align 8
  %72 = getelementptr inbounds i8, ptr %71, i64 24
  %73 = load i64, ptr %72, align 8
  %74 = and i64 %73, 32768
  %.not8.i.i45 = icmp eq i64 %74, 0
  br i1 %.not8.i.i45, label %.loopexit, label %75

75:                                               ; preds = %69
  %76 = getelementptr inbounds i8, ptr %71, i64 96
  br label %type_find_parent_type.exit.i40

77:                                               ; preds = %67
  %78 = getelementptr inbounds i8, ptr %65, i64 56
  %79 = load ptr, ptr %78, align 8
  %80 = getelementptr inbounds i8, ptr %79, i64 24
  %81 = load i64, ptr %80, align 8
  %82 = and i64 %81, 32768
  %.not.i.i39 = icmp eq i64 %82, 0
  br i1 %.not.i.i39, label %.loopexit, label %83

83:                                               ; preds = %77
  %84 = getelementptr inbounds i8, ptr %79, i64 104
  %85 = load ptr, ptr %84, align 8
  br label %type_find_parent_type.exit.i40

type_find_parent_type.exit.i40:                   ; preds = %83, %75
  %.sink.i.i41 = phi ptr [ %85, %83 ], [ %76, %75 ]
  %.sink10.i.i42 = phi i64 [ 72, %83 ], [ 8, %75 ]
  %86 = load ptr, ptr %.sink.i.i41, align 8
  %87 = getelementptr inbounds i8, ptr %86, i64 %.sink10.i.i42
  %88 = load ptr, ptr %87, align 8
  %.not.not.i43 = icmp eq ptr %88, null
  br i1 %.not.not.i43, label %.loopexit, label %.lr.ph.i37, !llvm.loop !24

.loopexit:                                        ; preds = %67, %77, %69, %type_find_parent_type.exit.i40, %.loopexit50
  %89 = tail call ptr @type_find_max_type(ptr noundef nonnull %spec.select35, ptr noundef %.1)
  %.not33 = icmp eq ptr %89, null
  br i1 %.not33, label %type_is_subtype.exit, label %90

90:                                               ; preds = %.loopexit
  %91 = tail call fastcc ptr @type_generate_ptr(ptr noundef nonnull %89, i1 noundef zeroext false)
  br label %type_is_subtype.exit

type_is_subtype.exit:                             ; preds = %.lr.ph.i, %.lr.ph.i37, %.loopexit, %2, %4, %90, %24, %10
  %.0 = phi ptr [ %11, %10 ], [ %25, %24 ], [ %91, %90 ], [ null, %4 ], [ null, %2 ], [ null, %.loopexit ], [ %1, %.lr.ph.i37 ], [ %0, %.lr.ph.i ]
  ret ptr %.0
}